; Function Attrs: mustprogress uwtable
define void @_ZN6icu_779VTimeZone12setRawOffsetEi(ptr noundef nonnull readonly align 8 captures(none) dereferenceable(288) %0, i32 noundef %1) unnamed_addr #2 align 2 {
  %3 = getelementptr inbounds nuw i8, ptr %0, i64 72
  %4 = load ptr, ptr %3, align 8, !tbaa !29
  %5 = load ptr, ptr %4, align 8, !tbaa !17
  %6 = getelementptr inbounds nuw i8, ptr %5, i64 56
  %7 = load ptr, ptr %6, align 8
  tail call void %7(ptr noundef nonnull align 8 dereferenceable(72) %4, i32 noundef %1)
  ret void
}